target datalayout = "e-m:e-p270:32:32-p271:32:32-p272:64:64-i64:64-i128:128-f80:128-n8:16:32:64-S128"
target triple = "x86_64-unknown-linux-gnu"

%"class.std::__cxx11::basic_string" = type { %"struct.std::__cxx11::basic_string<char>::_Alloc_hider", i64, %union.anon }
%"struct.std::__cxx11::basic_string<char>::_Alloc_hider" = type { ptr }
%union.anon = type { i64, [8 x i8] }
%"class.std::__cxx11::basic_ostringstream" = type { %"class.std::basic_ostream.base", %"class.std::__cxx11::basic_stringbuf", %"class.std::basic_ios" }
%"class.std::basic_ostream.base" = type { ptr }
%"class.std::__cxx11::basic_stringbuf" = type { %"class.std::basic_streambuf", i32, %"class.std::__cxx11::basic_string" }
%"class.std::basic_streambuf" = type { ptr, ptr, ptr, ptr, ptr, ptr, ptr, %"class.std::locale" }
%"class.std::locale" = type { ptr }
%"class.std::basic_ios" = type { %"class.std::ios_base", ptr, i8, i8, ptr, ptr, ptr, ptr }
%"class.std::ios_base" = type { ptr, i64, i64, i32, i32, i32, ptr, %"struct.std::ios_base::_Words", [8 x %"struct.std::ios_base::_Words"], i32, ptr, %"class.std::locale" }
%"struct.std::ios_base::_Words" = type { ptr, i64 }
%"class.node::NativeSymbolDebuggingContext::SymbolInfo" = type { %"class.std::__cxx11::basic_string", %"class.std::__cxx11::basic_string", i64, i64 }

@.str.76 = private unnamed_addr constant [2 x i8] c"+\00", align 1
@.str.77 = private unnamed_addr constant [3 x i8] c" [\00", align 1
@.str.78 = private unnamed_addr constant [3 x i8] c":L\00", align 1

; Function Attrs: mustprogress nounwind uwtable
define dso_local void @_ZNK4node28NativeSymbolDebuggingContext10SymbolInfo7DisplayB5cxx11Ev(ptr noalias sret(%"class.std::__cxx11::basic_string") align 8 %agg.result, ptr noundef nonnull align 8 dereferenceable(80) %this) #4 align 2 {
entry:
  %result.ptr = alloca ptr, align 8
  %this.addr = alloca ptr, align 8
  %oss = alloca %"class.std::__cxx11::basic_ostringstream", align 8
  store ptr %agg.result, ptr %result.ptr, align 8
  store ptr %this, ptr %this.addr, align 8
  %this1 = load ptr, ptr %this.addr, align 8
  call void @_ZNSt7__cxx1119basic_ostringstreamIcSt11char_traitsIcESaIcEEC1Ev(ptr noundef nonnull align 8 dereferenceable(112) %oss)
  %name = getelementptr inbounds %"class.node::NativeSymbolDebuggingContext::SymbolInfo", ptr %this1, i32 0, i32 0
  %call = call noundef nonnull align 8 dereferenceable(8) ptr @_ZStlsIcSt11char_traitsIcESaIcEERSt13basic_ostreamIT_T0_ES7_RKNSt7__cxx1112basic_stringIS4_S5_T1_EE(ptr noundef nonnull align 8 dereferenceable(8) %oss, ptr noundef nonnull align 8 dereferenceable(32) %name)
  %dis = getelementptr inbounds %"class.node::NativeSymbolDebuggingContext::SymbolInfo", ptr %this1, i32 0, i32 3
  %0 = load i64, ptr %dis, align 8
  %cmp = icmp ne i64 %0, 0
  br i1 %cmp, label %if.then, label %if.end

if.then:                                          ; preds = %entry
  %call2 = call noundef nonnull align 8 dereferenceable(8) ptr @_ZStlsISt11char_traitsIcEERSt13basic_ostreamIcT_ES5_PKc(ptr noundef nonnull align 8 dereferenceable(8) %oss, ptr noundef @.str.76)
  %dis3 = getelementptr inbounds %"class.node::NativeSymbolDebuggingContext::SymbolInfo", ptr %this1, i32 0, i32 3
  %1 = load i64, ptr %dis3, align 8
  %call4 = call noundef nonnull align 8 dereferenceable(8) ptr @_ZNSolsEm(ptr noundef nonnull align 8 dereferenceable(8) %call2, i64 noundef %1)
  br label %if.end

if.end:                                           ; preds = %if.then, %entry
  %filename = getelementptr inbounds %"class.node::NativeSymbolDebuggingContext::SymbolInfo", ptr %this1, i32 0, i32 1
  %call5 = call noundef zeroext i1 @_ZNKSt7__cxx1112basic_stringIcSt11char_traitsIcESaIcEE5emptyEv(ptr noundef nonnull align 8 dereferenceable(32) %filename) #3
  br i1 %call5, label %if.end11, label %if.then6

if.then6:                                         ; preds = %if.end
  %call7 = call noundef nonnull align 8 dereferenceable(8) ptr @_ZStlsISt11char_traitsIcEERSt13basic_ostreamIcT_ES5_PKc(ptr noundef nonnull align 8 dereferenceable(8) %oss, ptr noundef @.str.77)
  %filename8 = getelementptr inbounds %"class.node::NativeSymbolDebuggingContext::SymbolInfo", ptr %this1, i32 0, i32 1
  %call9 = call noundef nonnull align 8 dereferenceable(8) ptr @_ZStlsIcSt11char_traitsIcESaIcEERSt13basic_ostreamIT_T0_ES7_RKNSt7__cxx1112basic_stringIS4_S5_T1_EE(ptr noundef nonnull align 8 dereferenceable(8) %call7, ptr noundef nonnull align 8 dereferenceable(32) %filename8)
  %call10 = call noundef nonnull align 8 dereferenceable(8) ptr @_ZStlsISt11char_traitsIcEERSt13basic_ostreamIcT_ES5_c(ptr noundef nonnull align 8 dereferenceable(8) %call9, i8 noundef signext 93)
  br label %if.end11

if.end11:                                         ; preds = %if.then6, %if.end
  %line = getelementptr inbounds %"class.node::NativeSymbolDebuggingContext::SymbolInfo", ptr %this1, i32 0, i32 2
  %2 = load i64, ptr %line, align 8
  %cmp12 = icmp ne i64 %2, 0
  br i1 %cmp12, label %if.then13, label %if.end17

if.then13:                                        ; preds = %if.end11
  %call14 = call noundef nonnull align 8 dereferenceable(8) ptr @_ZStlsISt11char_traitsIcEERSt13basic_ostreamIcT_ES5_PKc(ptr noundef nonnull align 8 dereferenceable(8) %oss, ptr noundef @.str.78)
  %line15 = getelementptr inbounds %"class.node::NativeSymbolDebuggingContext::SymbolInfo", ptr %this1, i32 0, i32 2
  %3 = load i64, ptr %line15, align 8
  %call16 = call noundef nonnull align 8 dereferenceable(8) ptr @_ZNSolsEm(ptr noundef nonnull align 8 dereferenceable(8) %call14, i64 noundef %3)
  br label %if.end17

if.end17:                                         ; preds = %if.then13, %if.end11
  call void @_ZNKSt7__cxx1119basic_ostringstreamIcSt11char_traitsIcESaIcEE3strEv(ptr sret(%"class.std::__cxx11::basic_string") align 8 %agg.result, ptr noundef nonnull align 8 dereferenceable(112) %oss)
  call void @_ZNSt7__cxx1119basic_ostringstreamIcSt11char_traitsIcESaIcEED1Ev(ptr noundef nonnull align 8 dereferenceable(112) %oss) #3
  ret void
}