; Function Attrs: mustprogress nounwind uwtable
define dso_local void @_ZNK4node28NativeSymbolDebuggingContext10SymbolInfo7DisplayB5cxx11Ev(ptr noalias sret(%"class.std::__cxx11::basic_string") align 8 %agg.result, ptr noundef nonnull align 8 dereferenceable(80) %this) local_unnamed_addr #3 align 2 {
entry:
  %oss = alloca %"class.std::__cxx11::basic_ostringstream", align 8
  call void @_ZNSt7__cxx1119basic_ostringstreamIcSt11char_traitsIcESaIcEEC1Ev(ptr noundef nonnull align 8 dereferenceable(112) %oss) #17
  %call = call noundef nonnull align 8 dereferenceable(8) ptr @_ZStlsIcSt11char_traitsIcESaIcEERSt13basic_ostreamIT_T0_ES7_RKNSt7__cxx1112basic_stringIS4_S5_T1_EE(ptr noundef nonnull align 8 dereferenceable(8) %oss, ptr noundef nonnull align 8 dereferenceable(32) %this) #17
  %dis = getelementptr inbounds i8, ptr %this, i64 72
  %0 = load i64, ptr %dis, align 8
  %cmp.not = icmp eq i64 %0, 0
  br i1 %cmp.not, label %if.end, label %if.then

if.then:                                          ; preds = %entry
  %call2 = call noundef nonnull align 8 dereferenceable(8) ptr @_ZStlsISt11char_traitsIcEERSt13basic_ostreamIcT_ES5_PKc(ptr noundef nonnull align 8 dereferenceable(8) %oss, ptr noundef nonnull @.str.76) #17
  %1 = load i64, ptr %dis, align 8
  %call4 = call noundef nonnull align 8 dereferenceable(8) ptr @_ZNSolsEm(ptr noundef nonnull align 8 dereferenceable(8) %call2, i64 noundef %1) #17
  br label %if.end

if.end:                                           ; preds = %if.then, %entry
  %filename = getelementptr inbounds i8, ptr %this, i64 32
  %call5 = call noundef zeroext i1 @_ZNKSt7__cxx1112basic_stringIcSt11char_traitsIcESaIcEE5emptyEv(ptr noundef nonnull align 8 dereferenceable(32) %filename) #17
  br i1 %call5, label %if.end11, label %if.then6

if.then6:                                         ; preds = %if.end
  %call7 = call noundef nonnull align 8 dereferenceable(8) ptr @_ZStlsISt11char_traitsIcEERSt13basic_ostreamIcT_ES5_PKc(ptr noundef nonnull align 8 dereferenceable(8) %oss, ptr noundef nonnull @.str.77) #17
  %call9 = call noundef nonnull align 8 dereferenceable(8) ptr @_ZStlsIcSt11char_traitsIcESaIcEERSt13basic_ostreamIT_T0_ES7_RKNSt7__cxx1112basic_stringIS4_S5_T1_EE(ptr noundef nonnull align 8 dereferenceable(8) %call7, ptr noundef nonnull align 8 dereferenceable(32) %filename) #17
  %call10 = call noundef nonnull align 8 dereferenceable(8) ptr @_ZStlsISt11char_traitsIcEERSt13basic_ostreamIcT_ES5_c(ptr noundef nonnull align 8 dereferenceable(8) %call9, i8 noundef signext 93) #17
  br label %if.end11

if.end11:                                         ; preds = %if.then6, %if.end
  %line = getelementptr inbounds i8, ptr %this, i64 64
  %2 = load i64, ptr %line, align 8
  %cmp12.not = icmp eq i64 %2, 0
  br i1 %cmp12.not, label %if.end17, label %if.then13

if.then13:                                        ; preds = %if.end11
  %call14 = call noundef nonnull align 8 dereferenceable(8) ptr @_ZStlsISt11char_traitsIcEERSt13basic_ostreamIcT_ES5_PKc(ptr noundef nonnull align 8 dereferenceable(8) %oss, ptr noundef nonnull @.str.78) #17
  %3 = load i64, ptr %line, align 8
  %call16 = call noundef nonnull align 8 dereferenceable(8) ptr @_ZNSolsEm(ptr noundef nonnull align 8 dereferenceable(8) %call14, i64 noundef %3) #17
  br label %if.end17

if.end17:                                         ; preds = %if.then13, %if.end11
  call void @_ZNKSt7__cxx1119basic_ostringstreamIcSt11char_traitsIcESaIcEE3strEv(ptr sret(%"class.std::__cxx11::basic_string") align 8 %agg.result, ptr noundef nonnull align 8 dereferenceable(112) %oss) #17
  call void @_ZNSt7__cxx1119basic_ostringstreamIcSt11char_traitsIcESaIcEED1Ev(ptr noundef nonnull align 8 dereferenceable(112) %oss) #17
  ret void
}